; Function Attrs: mustprogress uwtable
define void @_ZN6duckdb11dbp_encoder10WriteValueIiEEvRNS_10DbpEncoderERNS_11WriteStreamERKT_(ptr noundef nonnull align 8 dereferenceable(18480) %0, ptr noundef nonnull align 8 dereferenceable(8) %1, ptr noundef nonnull readonly align 4 captures(none) dereferenceable(4) %2) local_unnamed_addr #1 {
  %4 = load i32, ptr %2, align 4, !tbaa !29
  %5 = sext i32 %4 to i64
  %6 = getelementptr inbounds nuw i8, ptr %0, i64 16
  %7 = load i64, ptr %6, align 8, !tbaa !26
  %8 = sub i64 %5, %7
  store i64 %5, ptr %6, align 8, !tbaa !26
  %9 = getelementptr inbounds nuw i8, ptr %0, i64 24
  %10 = load i64, ptr %9, align 8, !tbaa !27
  %11 = tail call noundef i64 @llvm.smin.i64(i64 %10, i64 %8)
  store i64 %11, ptr %9, align 8, !tbaa !27
  %12 = getelementptr inbounds nuw i8, ptr %0, i64 32
  %13 = getelementptr inbounds nuw i8, ptr %0, i64 16416
  %14 = load i64, ptr %13, align 8, !tbaa !28
  %15 = add i64 %14, 1
  store i64 %15, ptr %13, align 8, !tbaa !28
  %16 = getelementptr inbounds nuw [2048 x i64], ptr %12, i64 0, i64 %14
  store i64 %8, ptr %16, align 8, !tbaa !24
  %17 = load i64, ptr %13, align 8, !tbaa !28
  %18 = icmp eq i64 %17, 2048
  br i1 %18, label %19, label %_ZN6duckdb11dbp_encoder10WriteValueIlEEvRNS_10DbpEncoderERNS_11WriteStreamERKT_.exit

19:                                               ; preds = %3
  tail call void @_ZN6duckdb10DbpEncoder10WriteBlockERNS_11WriteStreamE(ptr noundef nonnull align 8 dereferenceable(18480) %0, ptr noundef nonnull align 8 dereferenceable(8) %1)
  br label %_ZN6duckdb11dbp_encoder10WriteValueIlEEvRNS_10DbpEncoderERNS_11WriteStreamERKT_.exit

_ZN6duckdb11dbp_encoder10WriteValueIlEEvRNS_10DbpEncoderERNS_11WriteStreamERKT_.exit: ; preds = %3, %19
  ret void
}